; Function Attrs: nofree nounwind memory(write, argmem: none, inaccessiblemem: readwrite) uwtable
define noalias noundef ptr @PMIx_Device_distance_create(i64 noundef %0) local_unnamed_addr #13 {
  %2 = icmp eq i64 %0, 0
  br i1 %2, label %pmix_bfrops_base_tma_device_distance_create.exit, label %3

3:                                                ; preds = %1
  %4 = shl i64 %0, 5
  %5 = tail call noalias noundef ptr @malloc(i64 noundef %4) #45
  %.not.i = icmp eq ptr %5, null
  br i1 %.not.i, label %pmix_bfrops_base_tma_device_distance_create.exit, label %.preheader.i, !prof !77

.preheader.i:                                     ; preds = %3, %.preheader.i
  %.01.i = phi i64 [ %9, %.preheader.i ], [ 0, %3 ]
  %6 = getelementptr inbounds nuw %struct.pmix_device_distance, ptr %5, i64 %.01.i
  %7 = getelementptr inbounds nuw i8, ptr %6, i64 24
  tail call void @llvm.memset.p0.i64(ptr noundef nonnull align 8 dereferenceable(32) %6, i8 0, i64 32, i1 false)
  store i16 -1, ptr %7, align 8, !tbaa !89
  %8 = getelementptr inbounds nuw i8, ptr %6, i64 26
  store i16 -1, ptr %8, align 2, !tbaa !90
  %9 = add nuw i64 %.01.i, 1
  %exitcond.not.i = icmp eq i64 %9, %0
  br i1 %exitcond.not.i, label %pmix_bfrops_base_tma_device_distance_create.exit, label %.preheader.i, !llvm.loop !91

pmix_bfrops_base_tma_device_distance_create.exit: ; preds = %.preheader.i, %1, %3
  %.011.i = phi ptr [ null, %1 ], [ null, %3 ], [ %5, %.preheader.i ]
  ret ptr %.011.i
}